#include <math.h>
#include <stdio.h>
#include <stdlib.h>
#include <string.h>
#define ASCII 100
#define MAX_N 100
#define MAX_M 100
#define ASC 100
#define null 0
#define LEN 100
#define SUM 100
#define NUMBER 100
#define SIZE 100
#define MAXN 100
#define MAXSIZE 100
#define maxrow 100
#define maxcol 100
#define mx 100
#define NUM 100
#define ROW 100
#define COL 100
#define SIZEE 100
#define MAX_LEN 100
#define LIU 100
#define maxsize 100
#define NUM 100
#define NO 100
#define Null 0
#define ID_DIGITS 100
#define INT_MAX 100
#define INT_MIN 100
#define FALSE 0
#define TRUE 1
#define hang 100
#define lie 100
#define lll 100
#define LEM 100
#define K 100
#define INF 100
#define MONTH 12
#define true 1
#define PI 100
#define maxlen 100
#define maxinputint 100
#define STUDENT_NUM 100
#define TOTAL 100
#define LEN1 100
#define student_num 100
#define MAXLEN 100
#define MAXL 100
#define nMax 100
#define Vocabularysize 100
#define Sentencelength 100
#define LENGTH 100
#define ARRAY 100
#define len 100
#define tsuhu 100
#define h 100
#define maxn 100
#define MAXLENGTH 100
#define SEX 100
struct student
{
	char num[30];
	char name[20];
	char a[3];
	int age;
	char score[10];
	char add[30];
	struct student *next;
};
int n;
void main()
{
	int l=0,i=0;
    struct student *head,*p1,*p2,*newhead,*new1;
	n=0;
	p1=p2=(struct student*)malloc(LEN);
	scanf("%s%s%s%d%s%s",&p1->num,&p1->name,&p1->a,&p1->age,&p1->score,&p1->add);
	head=NULL;
	while(strcmp(p1->num,"end")!=0)
	{
		n=n+1;
		if(n==1)head=p1;
		else p2->next=p1;
		p2=p1;
		p1=(struct student*)malloc(LEN);
		scanf("%s%s%s%d%s%s",&p1->num,&p1->name,&p1->a,&p1->age,&p1->score,&p1->add);
	}
	p2->next=NULL;
    for(i=0;i<n;i++)
	{
		p2=p1=head;
        while(p1->next!=NULL)
		{
             p2=p1;
	       	p1=p1->next;
		}
		if(i==0)
			newhead=new1=p1;
		else new1=new1->next=p1;
		p2->next=NULL;
	}
    p1=newhead;
	for(l=0;l<n;l++)
	{
		printf("%s %s %s %d %s %s\n",p1->num,p1->name,p1->a,p1->age,p1->score,p1->add);
		p1=p1->next;
	}
}
