; ModuleID = '1963.c'
source_filename = "1963.c"
target datalayout = "e-m:e-p270:32:32-p271:32:32-p272:64:64-i64:64-f80:128-n8:16:32:64-S128"
target triple = "x86_64-pc-linux-gnu"

%struct.student = type { [30 x i8], [20 x i8], [3 x i8], i32, [10 x i8], [30 x i8], %struct.student* }

@n = common dso_local global i32 0, align 4
@.str = private unnamed_addr constant [13 x i8] c"%s%s%s%d%s%s\00", align 1
@.str.1 = private unnamed_addr constant [4 x i8] c"end\00", align 1
@.str.2 = private unnamed_addr constant [19 x i8] c"%s %s %s %d %s %s\0A\00", align 1

; Function Attrs: noinline nounwind uwtable
define dso_local void @main() #0 {
  %1 = alloca i32, align 4
  %2 = alloca i32, align 4
  %3 = alloca %struct.student*, align 8
  %4 = alloca %struct.student*, align 8
  %5 = alloca %struct.student*, align 8
  %6 = alloca %struct.student*, align 8
  %7 = alloca %struct.student*, align 8
  store i32 0, i32* %1, align 4
  store i32 0, i32* %2, align 4
  store i32 0, i32* @n, align 4
  %8 = call noalias i8* @malloc(i64 100) #4
  %9 = bitcast i8* %8 to %struct.student*
  store %struct.student* %9, %struct.student** %5, align 8
  store %struct.student* %9, %struct.student** %4, align 8
  %10 = load %struct.student*, %struct.student** %4, align 8
  %11 = getelementptr inbounds %struct.student, %struct.student* %10, i32 0, i32 0
  %12 = load %struct.student*, %struct.student** %4, align 8
  %13 = getelementptr inbounds %struct.student, %struct.student* %12, i32 0, i32 1
  %14 = load %struct.student*, %struct.student** %4, align 8
  %15 = getelementptr inbounds %struct.student, %struct.student* %14, i32 0, i32 2
  %16 = load %struct.student*, %struct.student** %4, align 8
  %17 = getelementptr inbounds %struct.student, %struct.student* %16, i32 0, i32 3
  %18 = load %struct.student*, %struct.student** %4, align 8
  %19 = getelementptr inbounds %struct.student, %struct.student* %18, i32 0, i32 4
  %20 = load %struct.student*, %struct.student** %4, align 8
  %21 = getelementptr inbounds %struct.student, %struct.student* %20, i32 0, i32 5
  %22 = call i32 (i8*, ...) @__isoc99_scanf(i8* getelementptr inbounds ([13 x i8], [13 x i8]* @.str, i64 0, i64 0), [30 x i8]* %11, [20 x i8]* %13, [3 x i8]* %15, i32* %17, [10 x i8]* %19, [30 x i8]* %21)
  store %struct.student* null, %struct.student** %3, align 8
  br label %23

23:                                               ; preds = %40, %0
  %24 = load %struct.student*, %struct.student** %4, align 8
  %25 = getelementptr inbounds %struct.student, %struct.student* %24, i32 0, i32 0
  %26 = getelementptr inbounds [30 x i8], [30 x i8]* %25, i64 0, i64 0
  %27 = call i32 @strcmp(i8* %26, i8* getelementptr inbounds ([4 x i8], [4 x i8]* @.str.1, i64 0, i64 0)) #5
  %28 = icmp ne i32 %27, 0
  br i1 %28, label %29, label %57

29:                                               ; preds = %23
  %30 = load i32, i32* @n, align 4
  %31 = add nsw i32 %30, 1
  store i32 %31, i32* @n, align 4
  %32 = load i32, i32* @n, align 4
  %33 = icmp eq i32 %32, 1
  br i1 %33, label %34, label %36

34:                                               ; preds = %29
  %35 = load %struct.student*, %struct.student** %4, align 8
  store %struct.student* %35, %struct.student** %3, align 8
  br label %40

36:                                               ; preds = %29
  %37 = load %struct.student*, %struct.student** %4, align 8
  %38 = load %struct.student*, %struct.student** %5, align 8
  %39 = getelementptr inbounds %struct.student, %struct.student* %38, i32 0, i32 6
  store %struct.student* %37, %struct.student** %39, align 8
  br label %40

40:                                               ; preds = %36, %34
  %41 = load %struct.student*, %struct.student** %4, align 8
  store %struct.student* %41, %struct.student** %5, align 8
  %42 = call noalias i8* @malloc(i64 100) #4
  %43 = bitcast i8* %42 to %struct.student*
  store %struct.student* %43, %struct.student** %4, align 8
  %44 = load %struct.student*, %struct.student** %4, align 8
  %45 = getelementptr inbounds %struct.student, %struct.student* %44, i32 0, i32 0
  %46 = load %struct.student*, %struct.student** %4, align 8
  %47 = getelementptr inbounds %struct.student, %struct.student* %46, i32 0, i32 1
  %48 = load %struct.student*, %struct.student** %4, align 8
  %49 = getelementptr inbounds %struct.student, %struct.student* %48, i32 0, i32 2
  %50 = load %struct.student*, %struct.student** %4, align 8
  %51 = getelementptr inbounds %struct.student, %struct.student* %50, i32 0, i32 3
  %52 = load %struct.student*, %struct.student** %4, align 8
  %53 = getelementptr inbounds %struct.student, %struct.student* %52, i32 0, i32 4
  %54 = load %struct.student*, %struct.student** %4, align 8
  %55 = getelementptr inbounds %struct.student, %struct.student* %54, i32 0, i32 5
  %56 = call i32 (i8*, ...) @__isoc99_scanf(i8* getelementptr inbounds ([13 x i8], [13 x i8]* @.str, i64 0, i64 0), [30 x i8]* %45, [20 x i8]* %47, [3 x i8]* %49, i32* %51, [10 x i8]* %53, [30 x i8]* %55)
  br label %23

57:                                               ; preds = %23
  %58 = load %struct.student*, %struct.student** %5, align 8
  %59 = getelementptr inbounds %struct.student, %struct.student* %58, i32 0, i32 6
  store %struct.student* null, %struct.student** %59, align 8
  store i32 0, i32* %2, align 4
  br label %60

60:                                               ; preds = %88, %57
  %61 = load i32, i32* %2, align 4
  %62 = load i32, i32* @n, align 4
  %63 = icmp slt i32 %61, %62
  br i1 %63, label %64, label %91

64:                                               ; preds = %60
  %65 = load %struct.student*, %struct.student** %3, align 8
  store %struct.student* %65, %struct.student** %4, align 8
  store %struct.student* %65, %struct.student** %5, align 8
  br label %66

66:                                               ; preds = %71, %64
  %67 = load %struct.student*, %struct.student** %4, align 8
  %68 = getelementptr inbounds %struct.student, %struct.student* %67, i32 0, i32 6
  %69 = load %struct.student*, %struct.student** %68, align 8
  %70 = icmp ne %struct.student* %69, null
  br i1 %70, label %71, label %76

71:                                               ; preds = %66
  %72 = load %struct.student*, %struct.student** %4, align 8
  store %struct.student* %72, %struct.student** %5, align 8
  %73 = load %struct.student*, %struct.student** %4, align 8
  %74 = getelementptr inbounds %struct.student, %struct.student* %73, i32 0, i32 6
  %75 = load %struct.student*, %struct.student** %74, align 8
  store %struct.student* %75, %struct.student** %4, align 8
  br label %66

76:                                               ; preds = %66
  %77 = load i32, i32* %2, align 4
  %78 = icmp eq i32 %77, 0
  br i1 %78, label %79, label %81

79:                                               ; preds = %76
  %80 = load %struct.student*, %struct.student** %4, align 8
  store %struct.student* %80, %struct.student** %7, align 8
  store %struct.student* %80, %struct.student** %6, align 8
  br label %85

81:                                               ; preds = %76
  %82 = load %struct.student*, %struct.student** %4, align 8
  %83 = load %struct.student*, %struct.student** %7, align 8
  %84 = getelementptr inbounds %struct.student, %struct.student* %83, i32 0, i32 6
  store %struct.student* %82, %struct.student** %84, align 8
  store %struct.student* %82, %struct.student** %7, align 8
  br label %85

85:                                               ; preds = %81, %79
  %86 = load %struct.student*, %struct.student** %5, align 8
  %87 = getelementptr inbounds %struct.student, %struct.student* %86, i32 0, i32 6
  store %struct.student* null, %struct.student** %87, align 8
  br label %88

88:                                               ; preds = %85
  %89 = load i32, i32* %2, align 4
  %90 = add nsw i32 %89, 1
  store i32 %90, i32* %2, align 4
  br label %60

91:                                               ; preds = %60
  %92 = load %struct.student*, %struct.student** %6, align 8
  store %struct.student* %92, %struct.student** %4, align 8
  store i32 0, i32* %1, align 4
  br label %93

93:                                               ; preds = %120, %91
  %94 = load i32, i32* %1, align 4
  %95 = load i32, i32* @n, align 4
  %96 = icmp slt i32 %94, %95
  br i1 %96, label %97, label %123

97:                                               ; preds = %93
  %98 = load %struct.student*, %struct.student** %4, align 8
  %99 = getelementptr inbounds %struct.student, %struct.student* %98, i32 0, i32 0
  %100 = getelementptr inbounds [30 x i8], [30 x i8]* %99, i64 0, i64 0
  %101 = load %struct.student*, %struct.student** %4, align 8
  %102 = getelementptr inbounds %struct.student, %struct.student* %101, i32 0, i32 1
  %103 = getelementptr inbounds [20 x i8], [20 x i8]* %102, i64 0, i64 0
  %104 = load %struct.student*, %struct.student** %4, align 8
  %105 = getelementptr inbounds %struct.student, %struct.student* %104, i32 0, i32 2
  %106 = getelementptr inbounds [3 x i8], [3 x i8]* %105, i64 0, i64 0
  %107 = load %struct.student*, %struct.student** %4, align 8
  %108 = getelementptr inbounds %struct.student, %struct.student* %107, i32 0, i32 3
  %109 = load i32, i32* %108, align 8
  %110 = load %struct.student*, %struct.student** %4, align 8
  %111 = getelementptr inbounds %struct.student, %struct.student* %110, i32 0, i32 4
  %112 = getelementptr inbounds [10 x i8], [10 x i8]* %111, i64 0, i64 0
  %113 = load %struct.student*, %struct.student** %4, align 8
  %114 = getelementptr inbounds %struct.student, %struct.student* %113, i32 0, i32 5
  %115 = getelementptr inbounds [30 x i8], [30 x i8]* %114, i64 0, i64 0
  %116 = call i32 (i8*, ...) @printf(i8* getelementptr inbounds ([19 x i8], [19 x i8]* @.str.2, i64 0, i64 0), i8* %100, i8* %103, i8* %106, i32 %109, i8* %112, i8* %115)
  %117 = load %struct.student*, %struct.student** %4, align 8
  %118 = getelementptr inbounds %struct.student, %struct.student* %117, i32 0, i32 6
  %119 = load %struct.student*, %struct.student** %118, align 8
  store %struct.student* %119, %struct.student** %4, align 8
  br label %120

120:                                              ; preds = %97
  %121 = load i32, i32* %1, align 4
  %122 = add nsw i32 %121, 1
  store i32 %122, i32* %1, align 4
  br label %93

123:                                              ; preds = %93
  ret void
}

; Function Attrs: nounwind
declare dso_local noalias i8* @malloc(i64) #1

declare dso_local i32 @__isoc99_scanf(i8*, ...) #2

; Function Attrs: nounwind readonly
declare dso_local i32 @strcmp(i8*, i8*) #3

declare dso_local i32 @printf(i8*, ...) #2


!llvm.module.flags = !{!0}
!llvm.ident = !{!1}

!0 = !{i32 1, !"wchar_size", i32 4}
!1 = !{!"clang version 10.0.0-4ubuntu1 "}
